; Function Attrs: nounwind uwtable
define internal range(i32 0, 2) i32 @parse_expected_client_sign_hash(ptr noundef writeonly captures(none) %0, ptr noundef %1) #1 {
  %3 = getelementptr inbounds nuw i8, ptr %0, i64 508
  %4 = icmp eq ptr %1, null
  br i1 %4, label %parse_expected_sign_hash.exit, label %5

5:                                                ; preds = %2
  %6 = tail call i32 @OBJ_sn2nid(ptr noundef nonnull %1) #8
  %7 = icmp eq i32 %6, 0
  br i1 %7, label %8, label %.thread.i

8:                                                ; preds = %5
  %9 = tail call i32 @OBJ_ln2nid(ptr noundef nonnull %1) #8
  %10 = icmp eq i32 %9, 0
  br i1 %10, label %parse_expected_sign_hash.exit, label %.thread.i

.thread.i:                                        ; preds = %8, %5
  %.011.i = phi i32 [ %9, %8 ], [ %6, %5 ]
  store i32 %.011.i, ptr %3, align 4, !tbaa !67
  br label %parse_expected_sign_hash.exit

parse_expected_sign_hash.exit:                    ; preds = %2, %8, %.thread.i
  %.07.i = phi i32 [ 1, %.thread.i ], [ 0, %2 ], [ 0, %8 ]
  ret i32 %.07.i
}